;
; File generated by cc65 v 2.19 - Git 216bb22
;
	.fopt		compiler,"cc65 v 2.19 - Git 216bb22"
	.setcpu		"6502"
	.smart		on
	.autoimport	on
	.case		on
	.debuginfo	off
	.importzp	sp, sreg, regsave, regbank
	.importzp	tmp1, tmp2, tmp3, tmp4, ptr1, ptr2, ptr3, ptr4
	.macpack	longbranch
	.forceimport	__STARTUP__
	.import		_pal_all
	.import		_ppu_wait_nmi
	.import		_ppu_off
	.import		_ppu_on_all
	.import		_oam_clear
	.import		_oam_meta_spr
	.import		_pad_poll
	.export		_player_x
	.export		_player_y
	.export		_pad1
	.export		_palette
	.export		_frisk_down_0
	.export		_main

.segment	"DATA"

_player_x:
	.byte	$00
_player_y:
	.byte	$00

.segment	"RODATA"

_palette:
	.byte	$14
	.byte	$30
	.byte	$24
	.byte	$19
	.byte	$14
	.byte	$1C
	.byte	$15
	.byte	$2A
	.byte	$14
	.byte	$06
	.byte	$27
	.byte	$2C
	.byte	$14
	.byte	$06
	.byte	$27
	.byte	$2C
	.byte	$14
	.byte	$06
	.byte	$27
	.byte	$2C
	.byte	$14
	.byte	$06
	.byte	$27
	.byte	$2C
	.byte	$14
	.byte	$06
	.byte	$27
	.byte	$2C
	.byte	$14
	.byte	$06
	.byte	$27
	.byte	$2C
_frisk_down_0:
	.byte	$00
	.byte	$00
	.byte	$01
	.byte	$00
	.byte	$08
	.byte	$00
	.byte	$02
	.byte	$00
	.byte	$00
	.byte	$08
	.byte	$03
	.byte	$00
	.byte	$08
	.byte	$08
	.byte	$04
	.byte	$00
	.byte	$00
	.byte	$10
	.byte	$05
	.byte	$00
	.byte	$08
	.byte	$10
	.byte	$06
	.byte	$00
	.byte	$00
	.byte	$18
	.byte	$07
	.byte	$00
	.byte	$08
	.byte	$18
	.byte	$08
	.byte	$00
	.byte	$80

.segment	"BSS"

_pad1:
	.res	1,$00

; ---------------------------------------------------------------
; void __near__ main (void)
; ---------------------------------------------------------------

.segment	"CODE"

.proc	_main: near

.segment	"CODE"

;
; ppu_off();
;
	jsr     _ppu_off
;
; pal_all(palette);
;
	lda     #<(_palette)
	ldx     #>(_palette)
	jsr     _pal_all
;
; oam_clear();
;
	jsr     _oam_clear
;
; oam_meta_spr(player_x, player_y,0, frisk_down_0);
;
	lda     _player_x
	jsr     pusha
	lda     _player_y
	jsr     pusha
	lda     #$00
	jsr     pusha
	lda     #<(_frisk_down_0)
	ldx     #>(_frisk_down_0)
	jsr     _oam_meta_spr
;
; ppu_on_all();
;
	jsr     _ppu_on_all
;
; while(1){
;
	jmp     L0004
;
; ppu_wait_nmi();
;
L0002:	jsr     _ppu_wait_nmi
;
; pad1 = pad_poll(0);
;
	lda     #$00
	jsr     _pad_poll
	sta     _pad1
;
; if(pad1 & PAD_LEFT)
;
	ldx     #$00
	lda     _pad1
	ldx     #$00
	and     #$02
	stx     tmp1
	ora     tmp1
	jeq     L0005
;
; player_x--;
;
	ldx     #$00
	lda     _player_x
	dec     _player_x
;
; if(pad1 & PAD_RIGHT)
;
L0005:	ldx     #$00
	lda     _pad1
	ldx     #$00
	and     #$01
	stx     tmp1
	ora     tmp1
	jeq     L0006
;
; player_x++;
;
	ldx     #$00
	lda     _player_x
	inc     _player_x
;
; if(pad1 & PAD_UP)
;
L0006:	ldx     #$00
	lda     _pad1
	ldx     #$00
	and     #$08
	stx     tmp1
	ora     tmp1
	jeq     L0007
;
; player_y--;
;
	ldx     #$00
	lda     _player_y
	dec     _player_y
;
; if(pad1 & PAD_DOWN)
;
L0007:	ldx     #$00
	lda     _pad1
	ldx     #$00
	and     #$04
	stx     tmp1
	ora     tmp1
	jeq     L0008
;
; player_y++;
;
	ldx     #$00
	lda     _player_y
	inc     _player_y
;
; oam_meta_spr(player_x, player_y,0, frisk_down_0);
;
L0008:	lda     _player_x
	jsr     pusha
	lda     _player_y
	jsr     pusha
	lda     #$00
	jsr     pusha
	lda     #<(_frisk_down_0)
	ldx     #>(_frisk_down_0)
	jsr     _oam_meta_spr
;
; while(1){
;
L0004:	jmp     L0002
;
; }
;
	rts

.endproc

